MPASM  5.43                         SETUP.ASM   3-26-2019  2:29:52         PAGE  1


LOC  OBJECT CODE     LINE SOURCE TEXT
  VALUE

                      00001 #include p18f2431.inc
                      00001         LIST
                      00002 
                      00003 ;==========================================================================
                      00004 ;  MPASM PIC18F2431 processor include
                      00005 ; 
                      00006 ;  (c) Copyright 1999-2011 Microchip Technology, All rights reserved
                      00007 ;==========================================================================
                      00008 
                      01464         LIST
                      00002 #include inc/vars.inc
                      00001 ; ------------------------------------------------------------------------------
                      00002 ; Variables
                      00003 
                      00004         cblock  0x0000          ; start addresses in user register space
                      00005 
                      00006 ;------ Shared variables
  00000000            00007         CV_FLAGS                ; Set of flags to indicate which PWM values have been updated
  00000001            00008         CV_PITCH                ; Current value for note Pitch (or VEL1 in MODE1)
  00000002            00009         CV_VELOCITY             ; Current value for note Velocity (or VEL2 in MODE1)
  00000003            00010         CV_MOD                  ; Current value for the Mod Wheel (or VEL3 in MODE1)
  00000004            00011         CV_GATE                 ; Current gate settings (bits 0-4)
  00000005            00012         CV_GATE_TMP
  00000006            00013         CLOCK_COUNTER           ; Counter for midi clock to derrive timings (reset on 6)
  00000007            00014         CLOCK_COUNTER_24        ; Counter for midi clock reset every 24 ticks (quarter note)
  00000008            00015         CLOCK_COUNTER_32        ; Counter for midi clock reset every 32 ticks (thrid note)
  00000009            00016         CLOCK_COUNTER_96        ; Counter for midi clock reset every 96 ticks (whole note)
  0000000A            00017         CLOCK_DIVIDER           ; Stored binary divided MIDI clock (not reset)
  0000000B            00018         SONG_START_INV          ; Inverted song start (0 indicates song start signal which lasts for 1 c
                            lock cycle)
                      00019 
  0000000C            00020         CV_PITCH_TARGET         ; Current target for pitch
  0000000D            00021         CV_PITCH_DELAY          ; Delay counter for pitch target resolution
  0000000E            00022         CV_VEL_TARGET           ; Current target for velocity
  0000000F            00023         CV_VEL_DELAY            ; Delay counter for velocity target resolution
  00000010            00024         CV_MOD_TARGET           ; Current target for mod
  00000011            00025         CV_MOD_DELAY            ; Delay counter for mod target resolution
                      00026 
  00000012            00027         DELAY_COUNTER0          ; general delay counters
  00000013            00028         DELAY_COUNTER1
  00000014            00029         DELAY_COUNTER2
  00000015            00030         DELAY_COUNTER3
                      00031 
  00000016            00032         START_STOP_TGL          ; toggle for start/stop midi clock
  00000017            00033         WAIT_FOR_BUTTONUP       ; flag to wait for button up
  00000018            00034         DEBOUNCE                ; debounce delay for button
                      00035 
                      00036 ;------ service.asm variables
  00000019            00037         W_TMP                   ; Storage for W register during interrupt
  0000001A            00038         ST_TMP                  ; Storage for STATUS register during interrupt
  0000001B            00039         BSR_TMP                 ; Storage for BSR register during interrupt
                      00040 
                      00041 ;------ midi.asm variables
MPASM  5.43                         SETUP.ASM   3-26-2019  2:29:52         PAGE  2


LOC  OBJECT CODE     LINE SOURCE TEXT
  VALUE

  0000001C            00042         TMP_CV_BYTE_L           ; Holds a temp value for pushing CV values to the PWM registers
  0000001D            00043         TMP_CV_BYTE_H
                      00044 
                      00045 ;------ midi.read.int.asm variables (entry point)
                      00046 
                      00047         endc
                      00048 
                      00049 
                      00050 ; ------------------------------------------------------------------------------
                      00051 ; Constants
                      00052 ;
  00000000            00053 CV_DATA_LKP:    equ     0x00    ; EEPROM base Address of CV Controller data lookup
  00000080            00054 CV_NOTE_LKP:    equ     0x80    ; EEPROM base Address CV Note data lookup
                      00055 
                      00056 ; CV_FLAGS
  00000000            00057 CVF_PITCH:      equ     0x00    ; MODE0
  00000001            00058 CVF_VELOCITY:   equ     0x01    ; MODE0
  00000002            00059 CVF_MOD:        equ     0x02    ; MODE0
  00000003            00060 CVF_CV_4:       equ     0x03    ; MODE0
  00000004            00061 CVF_CV_5:       equ     0x04    ; MODE0
                      00062 
                      00063 ; GATE Mappings
                      00064 ; Bits 0 to 4 of PORT_C represent gates
                      00065 ; Bit 0 represents GATE 5 and Bit 4 represents GATE 1 in v2.0 to match the hardware layout
  00000004            00066 GATE_1:         equ     0x04
  00000003            00067 GATE_2:         equ     0x03
  00000002            00068 GATE_3:         equ     0x02
  00000001            00069 GATE_4:         equ     0x01
  00000000            00070 GATE_5:         equ     0x00
                      00071 
  00000080            00072 DELAY_96        equ     0x80
  00000080            00073 DELAY_32        equ     0x80
  00000080            00074 DELAY_24        equ     0x80
                      00003 
                      00004 ; ------------------------------------------------------------------------------
                      00005 ; Export global code refs
                      00006 ;
  0000                00007         global  _SETUP
                      00008 
  0000                00009         extern LFO_SINE_DATA_24
  0000                00010         extern LFO_SINE_DATA_32
  0000                00011         extern LFO_SINE_DATA_96
                      00012 
                      00013 ; ------------------------------------------------------------------------------
                      00014 ; Setup routine
                      00015 ;
                      00016 .SETUP  code                    ; Relocatable code for setup
000000                00017 _SETUP:
                      00018 
                      00019 ; Init I/O ports
000000 0E00           00020         movlw   0x00            ; All Digital I/O on PORTA
000002 6EB8           00021         movwf   ANSEL0
                      00022 
MPASM  5.43                         SETUP.ASM   3-26-2019  2:29:52         PAGE  3


LOC  OBJECT CODE     LINE SOURCE TEXT
  VALUE

000004 0E01           00023         movlw   b'00000001'     ; PORTA:        RA0 - Push Button Input for Start/Stop
000006 6E92           00024         movwf   TRISA           ;               RA1:4 - Output (Unused)
                      00025                                 ;               RA5 - Doesn't exist on this chip
                      00026                                 ;               RA6:7 - Crystal Osc
                      00027 
000008 0E00           00028         movlw   b'00000000'     ; PORTB:        RB0,2,5 - Digital Out (Unused)
00000A 6E93           00029         movwf   TRISB           ;               RB1,3,4 - PWM Out 1,3,5 (CV)
                      00030                                 ;               RB6:7 - PGC/PGD
                      00031 
00000C 0EC0           00032         movlw   b'11000000'     ; PORTC
00000E 6E94           00033         movwf   TRISC           ;               RC0:4 - Ditigal Out (Gates 1 - 5)
                      00034                                 ;               RC5   - Digital Out (Unused)
                      00035                                 ;               RC6:7 - Serial TX/RX (must both be set to 1)
                      00036 
                      00037 ; PWM Config (for CV out)
000010 0E02           00038         movlw   b'00000010'     ; No Pre-scale, No Post-scale, Continuous w/no interrupts
000012 6E7F           00039         movwf   PTCON0          ; Timer clock runs at FOSC/4 = 5MHz
                      00040 
000014 0E80           00041         movlw   b'10000000'     ; Time base enabled, count up (ignored)
000016 6E7E           00042         movwf   PTCON1
                      00043 
000018 0E77           00044         movlw   b'01110111'     ; Enable only odd PWM pins (RB1,3,4/PWM1,3,5); all in independent mode
00001A 6E6F           00045         movwf   PWMCON0
                      00046 
00001C 0E00           00047         movlw   b'00000000'     ; SE trigger postscale; trigger on count up; Update Duty/Period regs; As
                            ync PWM out
00001E 6E6E           00048         movwf   PWMCON1
                      00049 
000020 6A7A           00050         clrf    PTPERH          ; Set period register to 128, the tightest period for the control we nee
                            d
000022 0EFF           00051         movlw   0xFF            ; allows a 1 to 1 mapping for the CC registers (no need for EEPROM looku
                            p)
000024 6E7B           00052         movwf   PTPERL          ; The only reason we'd change this is if we need more control for the CV
                             tone
                      00053                                 ; With a timer clock at 5MHz, the base PWM freq is 5Mhz/128 = 39.0625KHz
                      00054                                 ; RC = 1/2xPixf =
                      00055                                 ;       R in K; C in uF; f in KHz
                      00056                                 ;               R = .390 K
                      00057                                 ;               f = 39.0625 KHz
                      00058                                 ;               C = 0.0104 uF (0x47+uF seemed to be requried)
                      00059 
                      00060 ; EUSART Config (RX/TX)
000026 98AC           00061         bcf     TXSTA,SYNC      ; Asynchronous
000028 94AC           00062         bcf     TXSTA,BRGH      ; Low spped BRG
00002A 96AA           00063         bcf     BAUDCON,BRG16   ; 8 bit BRG
00002C 90AA           00064         bcf     BAUDCON,ABDEN   ; Disable auto-baud detect
00002E 6AB0           00065         clrf    SPBRGH          ; Clear BRG high bit
000030 0E09           00066         movlw   0x09            ; Set BRG to 9 = 2MHz/31.25KHZ/64-1
000032 6EAF           00067         movwf   SPBRG
000034 8EAB           00068         bsf     RCSTA,SPEN      ; Enable Serial IO
                      00069 
                      00070 ; Serial RX Config (for MIDI IN)
                      00071         ;bcf    RCSTA,RX9       ; Receive 8-bit data
MPASM  5.43                         SETUP.ASM   3-26-2019  2:29:52         PAGE  4


LOC  OBJECT CODE     LINE SOURCE TEXT
  VALUE

                      00072         ;bsf    RCSTA,CREN      ; Enable RX
                      00073         ;bsf    PIE1,RCIE       ; Enable Serial RX Interrupt
                      00074         ;bsf    IPR1,RCIP       ; Set to High Priority
                      00075 
                      00076 ; Serial TX Config (for MIDI OUT)
000036 989D           00077         bcf     PIE1,TXIE       ; Disable transmit interrupt (we don't need this)
000038 9CAC           00078         bcf     TXSTA,TX9       ; Transmit 8-bit data
00003A 8AAC           00079         bsf     TXSTA,TXEN      ; Enable TX
                      00080 
                      00081 ; Timer1 (16bit) Config for Master Clock
                      00082 ; This is configured to match 96ticks for each quarter note based on the desired bpm
                      00083 ; The current configuration is scaled for 138bpm
                      00084 
                      00085 ; Calculate period of timer1
                      00086 ; 65536-5MHz*(bpm/60s*96ticks) = 65536-5000000*60/bpm/96 (seems off by a factor of 4??!)
                      00087 ; 138bpm = 42,891.07 at 1:4 prescale
                      00088 ;        = 20,246 at 1:2 prescale
                      00089 
                      00090         ; Prescale 1:2
00003C 0E16           00091         movlw   0x16
00003E 6ECE           00092         movwf   TMR1L
000040 0E4F           00093         movlw   0x4F            ; Reload calculated period for selected bpm
000042 6ECF           00094         movwf   TMR1H
                      00095 
000044 92CD           00096         bcf     T1CON,TMR1CS    ; Increment every instruction cycle (FOSC/4 => crystal at 20Mhz/4 => 5Mh
                            z)
000046 96CD           00097         bcf     T1CON,T1OSCEN   ; Disable internal Timer1 oscillator (uses internal clock from external 
                            osc) since we need RC0 and RC1 for output
000048 88CD           00098         bsf     T1CON,T1CKPS0   ; 1:2 Prescale value
00004A 9ACD           00099         bcf     T1CON,T1CKPS1
00004C 809D           00100         bsf     PIE1,TMR1IE     ; Enable Timer1 interrupt
00004E 90CD           00101         bcf     T1CON,TMR1ON    ; Disable  Timer1 (MIDI Clock enabled on Song Start)
                      00102 
                      00103 ; Setup vars
000050 6A00           00104         clrf    CV_FLAGS
000052 6A01           00105         clrf    CV_PITCH
000054 6A02           00106         clrf    CV_VELOCITY
000056 6A03           00107         clrf    CV_MOD
000058 6A04           00108         clrf    CV_GATE
                      00109 
00005A 6A0E           00110         clrf    CV_VEL_TARGET
00005C 6A0C           00111         clrf    CV_PITCH_TARGET
00005E 6A10           00112         clrf    CV_MOD_TARGET
                      00113 
000060 680B           00114         setf    SONG_START_INV  ; Clear song start
000062 6A16           00115         clrf    START_STOP_TGL
000064 6A17           00116         clrf    WAIT_FOR_BUTTONUP
000066 6A18           00117         clrf    DEBOUNCE
                      00118 
000068 6A06           00119         clrf    CLOCK_COUNTER
00006A 6A0A           00120         clrf    CLOCK_DIVIDER
00006C 6A07           00121         clrf    CLOCK_COUNTER_24
00006E 6A08           00122         clrf    CLOCK_COUNTER_32
MPASM  5.43                         SETUP.ASM   3-26-2019  2:29:52         PAGE  5


LOC  OBJECT CODE     LINE SOURCE TEXT
  VALUE

000070 6A09           00123         clrf    CLOCK_COUNTER_96
                      00124 
                      00125 ; Setup Table memory pointers
000072 0E??           00126         movlw   upper LFO_SINE_DATA_24          ; Will be the same for all tables, only need to set H an
                            d L bytes each lookup
000074 6EF8           00127         movwf   TBLPTRU         ; Select the program block with data (0x3000)
000076 0E??           00128         movlw   high LFO_SINE_DATA_24
000078 6EF7           00129         movwf   TBLPTRH         ; Select the program block with data (0x3000)
                      00130 
                      00131 ; Enable Interrupts
00007A 8ED0           00132         bsf     RCON,IPEN       ; Enable interrupt priorities
00007C 9CF2           00133         bcf     INTCON,GIEL     ; Disable low-prority interrupts
00007E 8EF2           00134         bsf     INTCON,GIEH     ; Enable high-priority interrupts (used for timber for 96ths MIDI clocks
                            )
                      00135 
000080 0012           00136         return
                      00137 
                      00138         end
MPASM  5.43                         SETUP.ASM   3-26-2019  2:29:52         PAGE  6


SYMBOL TABLE
  LABEL                             VALUE 

A                                 00000000
ABDEN                             00000000
ABDOVF                            00000007
ACCESS                            00000000
ACMOD0                            00000002
ACMOD1                            00000003
ACONV                             00000005
ACQT0                             00000003
ACQT1                             00000004
ACQT2                             00000005
ACQT3                             00000006
ACSCH                             00000004
ADCHS                             00000F99
ADCON0                            00000FC2
ADCON1                            00000FC1
ADCON2                            00000FC0
ADCON3                            00000F9A
ADCS0                             00000000
ADCS1                             00000001
ADCS2                             00000002
ADDEN                             00000003
ADEN                              00000003
ADFM                              00000007
ADIE                              00000006
ADIF                              00000006
ADIP                              00000006
ADON                              00000000
ADPNT0                            00000000
ADPNT1                            00000001
ADRES                             00000FC3
ADRESH                            00000FC4
ADRESL                            00000FC3
ADRS0                             00000006
ADRS1                             00000007
AN0                               00000000
AN1                               00000001
AN2                               00000002
AN3                               00000003
AN4                               00000004
ANS0                              00000000
ANS1                              00000001
ANS2                              00000002
ANS3                              00000003
ANS4                              00000004
ANSEL0                            00000FB8
BANKED                            00000001
BAUDCON                           00000FAA
BAUDCTL                           00000FAA
BF                                00000000
BFEMT                             00000003
BFOVFL                            00000002
BOR                               00000000
BRFEN                             00000007
MPASM  5.43                         SETUP.ASM   3-26-2019  2:29:52         PAGE  7


SYMBOL TABLE
  LABEL                             VALUE 

BRG16                             00000003
BRGH                              00000002
BSR                               00000FE0
BSR_TMP                           0000001B
C                                 00000000
CAP1BUFH                          00000F69
CAP1BUFL                          00000F68
CAP1CON                           00000F63
CAP1M0                            00000000
CAP1M1                            00000001
CAP1M2                            00000002
CAP1M3                            00000003
CAP1REN                           00000006
CAP1TMR                           00000005
CAP2BUFH                          00000F67
CAP2BUFL                          00000F66
CAP2CON                           00000F62
CAP2M0                            00000000
CAP2M1                            00000001
CAP2M2                            00000002
CAP2M3                            00000003
CAP2REN                           00000006
CAP2TMR                           00000005
CAP3BUFH                          00000F65
CAP3BUFL                          00000F64
CAP3CON                           00000F61
CAP3M0                            00000000
CAP3M1                            00000001
CAP3M2                            00000002
CAP3M3                            00000003
CAP3REN                           00000006
CAP3TMR                           00000005
CCP1                              00000002
CCP1CON                           00000FBD
CCP1IE                            00000002
CCP1IF                            00000002
CCP1IP                            00000002
CCP1M0                            00000000
CCP1M1                            00000001
CCP1M2                            00000002
CCP1M3                            00000003
CCP1X                             00000005
CCP1Y                             00000004
CCP2                              00000001
CCP2CON                           00000FBA
CCP2IE                            00000000
CCP2IF                            00000000
CCP2IP                            00000000
CCP2M0                            00000000
CCP2M1                            00000001
CCP2M2                            00000002
CCP2M3                            00000003
CCP2X                             00000005
MPASM  5.43                         SETUP.ASM   3-26-2019  2:29:52         PAGE  8


SYMBOL TABLE
  LABEL                             VALUE 

CCP2Y                             00000004
CCPR1                             00000FBE
CCPR1H                            00000FBF
CCPR1L                            00000FBE
CCPR2                             00000FBB
CCPR2H                            00000FBC
CCPR2L                            00000FBB
CFGS                              00000006
CK                                00000006
CKE                               00000006
CKP                               00000004
CLKI                              00000007
CLKO                              00000006
CLOCK_COUNTER                     00000006
CLOCK_COUNTER_24                  00000007
CLOCK_COUNTER_32                  00000008
CLOCK_COUNTER_96                  00000009
CLOCK_DIVIDER                     0000000A
CREN                              00000004
CSRC                              00000007
CVF_CV_4                          00000003
CVF_CV_5                          00000004
CVF_MOD                           00000002
CVF_PITCH                         00000000
CVF_VELOCITY                      00000001
CV_DATA_LKP                       00000000
CV_FLAGS                          00000000
CV_GATE                           00000004
CV_GATE_TMP                       00000005
CV_MOD                            00000003
CV_MOD_DELAY                      00000011
CV_MOD_TARGET                     00000010
CV_NOTE_LKP                       00000080
CV_PITCH                          00000001
CV_PITCH_DELAY                    0000000D
CV_PITCH_TARGET                   0000000C
CV_VELOCITY                       00000002
CV_VEL_DELAY                      0000000F
CV_VEL_TARGET                     0000000E
D                                 00000005
DATA_ADDRESS                      00000005
DC                                00000001
DC1B0                             00000004
DC1B1                             00000005
DC2B0                             00000004
DC2B1                             00000005
DDRA                              TRISA
DDRB                              TRISB
DDRC                              TRISC
DDRD                              TRISD
DDRE                              TRISE
DEBOUNCE                          00000018
DELAY_24                          00000080
MPASM  5.43                         SETUP.ASM   3-26-2019  2:29:52         PAGE  9


SYMBOL TABLE
  LABEL                             VALUE 

DELAY_32                          00000080
DELAY_96                          00000080
DELAY_COUNTER0                    00000012
DELAY_COUNTER1                    00000013
DELAY_COUNTER2                    00000014
DELAY_COUNTER3                    00000015
DFLTCON                           00000F60
DONE                              00000001
DOWN                              00000005
DT0                               00000000
DT1                               00000001
DT2                               00000002
DT3                               00000003
DT4                               00000004
DT5                               00000005
DTA0                              00000000
DTA1                              00000001
DTA2                              00000002
DTA3                              00000003
DTA4                              00000004
DTA5                              00000005
DTAPS0                            00000006
DTAPS1                            00000007
DTCON                             00000F6D
DTPS0                             00000006
DTPS1                             00000007
D_A                               00000005
D_NOT_A                           00000005
EEADR                             00000FA9
EECON1                            00000FA6
EECON2                            00000FA7
EEDATA                            00000FA8
EEIE                              00000004
EEIF                              00000004
EEIP                              00000004
EEPGD                             00000007
FAST                              00000001
FERR                              00000002
FFOVFL                            00000002
FIFOEN                            00000004
FLT1EN                            00000003
FLT2EN                            00000004
FLT3EN                            00000005
FLT4EN                            00000006
FLTA                              00000001
FLTAEN                            00000000
FLTAMOD                           00000001
FLTAS                             00000002
FLTB                              00000002
FLTBEN                            00000004
FLTBMOD                           00000005
FLTBS                             00000006
FLTCK0                            00000000
MPASM  5.43                         SETUP.ASM   3-26-2019  2:29:52         PAGE 10


SYMBOL TABLE
  LABEL                             VALUE 

FLTCK1                            00000001
FLTCK2                            00000002
FLTCON                            00000003
FLTCONFIG                         00000F6C
FLTS                              00000002
FREE                              00000004
FSR0                              00000000
FSR0H                             00000FEA
FSR0L                             00000FE9
FSR1                              00000001
FSR1H                             00000FE2
FSR1L                             00000FE1
FSR2                              00000002
FSR2H                             00000FDA
FSR2L                             00000FD9
GASEL0                            00000000
GASEL1                            00000001
GATE_1                            00000004
GATE_2                            00000003
GATE_3                            00000002
GATE_4                            00000001
GATE_5                            00000000
GBSEL0                            00000004
GBSEL1                            00000005
GCSEL0                            00000002
GCSEL1                            00000003
GDSEL0                            00000006
GDSEL1                            00000007
GIE                               00000007
GIEH                              00000007
GIEL                              00000006
GIE_GIEH                          00000007
GO                                00000001
GODONE                            00000001
GO_DONE                           00000001
GO_NOT_DONE                       00000001
IC1IE                             00000001
IC1IF                             00000001
IC1IP                             00000001
IC2QEIE                           00000002
IC2QEIF                           00000002
IC2QEIP                           00000002
IC3DRIE                           00000003
IC3DRIF                           00000003
IC3DRIP                           00000003
IDLEN                             00000007
INDF0                             00000FEF
INDF1                             00000FE7
INDF2                             00000FDF
INT0                              00000003
INT0E                             00000004
INT0F                             00000001
INT0IE                            00000004
MPASM  5.43                         SETUP.ASM   3-26-2019  2:29:52         PAGE 11


SYMBOL TABLE
  LABEL                             VALUE 

INT0IF                            00000001
INT1                              00000004
INT1E                             00000003
INT1F                             00000000
INT1IE                            00000003
INT1IF                            00000000
INT1IP                            00000006
INT1P                             00000006
INT2                              00000005
INT2E                             00000004
INT2F                             00000001
INT2IE                            00000004
INT2IF                            00000001
INT2IP                            00000007
INT2P                             00000007
INTCON                            00000FF2
INTCON2                           00000FF1
INTCON3                           00000FF0
INTEDG0                           00000006
INTEDG1                           00000005
INTEDG2                           00000004
IOFS                              00000002
IPEN                              00000007
IPR1                              00000F9F
IPR2                              00000FA2
IPR3                              00000FA5
IRCF0                             00000004
IRCF1                             00000005
IRCF2                             00000006
IRVST                             00000005
IVRST                             00000005
LATA                              00000F89
LATA0                             00000000
LATA1                             00000001
LATA2                             00000002
LATA3                             00000003
LATA4                             00000004
LATA6                             00000006
LATA7                             00000007
LATB                              00000F8A
LATB0                             00000000
LATB1                             00000001
LATB2                             00000002
LATB3                             00000003
LATB4                             00000004
LATB5                             00000005
LATB6                             00000006
LATB7                             00000007
LATC                              00000F8B
LATC0                             00000000
LATC1                             00000001
LATC2                             00000002
LATC3                             00000003
MPASM  5.43                         SETUP.ASM   3-26-2019  2:29:52         PAGE 12


SYMBOL TABLE
  LABEL                             VALUE 

LATC4                             00000004
LATC5                             00000005
LATC6                             00000006
LATC7                             00000007
LFO_SINE_DATA_24                  00000000
LFO_SINE_DATA_32                  00000000
LFO_SINE_DATA_96                  00000000
LVDCON                            00000FD2
LVDEN                             00000004
LVDIE                             00000002
LVDIF                             00000002
LVDIP                             00000002
LVDL0                             00000000
LVDL1                             00000001
LVDL2                             00000002
LVDL3                             00000003
MAXCNTH                           00000F65
MAXCNTL                           00000F64
MCLR                              00000003
N                                 00000004
NOT_A                             00000005
NOT_ADDRESS                       00000005
NOT_BOR                           00000000
NOT_DONE                          00000001
NOT_DOWN                          00000005
NOT_FLTA                          00000001
NOT_FLTB                          00000002
NOT_IPEN                          00000007
NOT_MCLR                          00000003
NOT_PD                            00000002
NOT_POR                           00000001
NOT_RBPU                          00000007
NOT_RESEN                         00000006
NOT_RI                            00000004
NOT_SS                            00000006
NOT_T1SYNC                        00000002
NOT_T5SYNC                        00000002
NOT_TO                            00000003
NOT_VELM                          00000007
NOT_W                             00000002
NOT_WRITE                         00000002
OERR                              00000001
OSC1                              00000007
OSC2                              00000006
OSCCON                            00000FD3
OSCTUNE                           00000F9B
OSFIE                             00000007
OSFIF                             00000007
OSFIP                             00000007
OSTS                              00000003
OSYNC                             00000000
OV                                00000003
OVDCOND                           00000F6B
MPASM  5.43                         SETUP.ASM   3-26-2019  2:29:52         PAGE 13


SYMBOL TABLE
  LABEL                             VALUE 

OVDCONS                           00000F6A
P                                 00000004
PC                                00000FF9
PCL                               00000FF9
PCLATH                            00000FFA
PCLATU                            00000FFB
PD                                00000002
PDC0H                             00000F78
PDC0L                             00000F79
PDC1H                             00000F76
PDC1L                             00000F77
PDC2H                             00000F74
PDC2L                             00000F75
PDEC0                             00000000
PDEC1                             00000001
PEIE                              00000006
PEIE_GIEL                         00000006
PIE1                              00000F9D
PIE2                              00000FA0
PIE3                              00000FA3
PIR1                              00000F9E
PIR2                              00000FA1
PIR3                              00000FA4
PLUSW0                            00000FEB
PLUSW1                            00000FE3
PLUSW2                            00000FDB
PMOD0                             00000000
PMOD1                             00000001
PMOD2                             00000002
PMOD3                             00000003
POR                               00000001
PORTA                             00000F80
PORTB                             00000F81
PORTC                             00000F82
PORTE                             00000F84
POSCNTH                           00000F67
POSCNTL                           00000F66
POSTDEC0                          00000FED
POSTDEC1                          00000FE5
POSTDEC2                          00000FDD
POSTINC0                          00000FEE
POSTINC1                          00000FE6
POSTINC2                          00000FDE
POUT0                             00000000
POUT1                             00000001
POUT2                             00000002
POUT3                             00000003
POUT4                             00000004
POUT5                             00000005
POUT6                             00000006
POUT7                             00000007
POVD0                             00000000
POVD1                             00000001
MPASM  5.43                         SETUP.ASM   3-26-2019  2:29:52         PAGE 14


SYMBOL TABLE
  LABEL                             VALUE 

POVD2                             00000002
POVD3                             00000003
POVD4                             00000004
POVD5                             00000005
POVD6                             00000006
POVD7                             00000007
PR2                               00000FCB
PR5                               00000F90
PR5H                              00000F91
PR5L                              00000F90
PREINC0                           00000FEC
PREINC1                           00000FE4
PREINC2                           00000FDC
PROD                              00000FF3
PRODH                             00000FF4
PRODL                             00000FF3
PSA                               00000003
PTCKPS0                           00000002
PTCKPS1                           00000003
PTCON0                            00000F7F
PTCON1                            00000F7E
PTDIR                             00000006
PTEN                              00000007
PTIE                              00000004
PTIF                              00000004
PTIP                              00000004
PTMOD0                            00000000
PTMOD1                            00000001
PTMRH                             00000F7C
PTMRL                             00000F7D
PTOPS0                            00000004
PTOPS1                            00000005
PTOPS2                            00000006
PTOPS3                            00000007
PTPERH                            00000F7A
PTPERL                            00000F7B
PWMCON0                           00000F6F
PWMCON1                           00000F6E
PWMEN0                            00000004
PWMEN1                            00000005
PWMEN2                            00000006
QEICON                            00000FB6
QEIM0                             00000002
QEIM1                             00000003
QEIM2                             00000004
R                                 00000002
RA0                               00000000
RA1                               00000001
RA2                               00000002
RA3                               00000003
RA4                               00000004
RA6                               00000006
RA7                               00000007
MPASM  5.43                         SETUP.ASM   3-26-2019  2:29:52         PAGE 15


SYMBOL TABLE
  LABEL                             VALUE 

RB0                               00000000
RB1                               00000001
RB2                               00000002
RB3                               00000003
RB4                               00000004
RB5                               00000005
RB6                               00000006
RB7                               00000007
RBIE                              00000003
RBIF                              00000000
RBIP                              00000000
RBPU                              00000007
RC0                               00000000
RC1                               00000001
RC2                               00000002
RC3                               00000003
RC4                               00000004
RC5                               00000005
RC6                               00000006
RC7                               00000007
RCIDL                             00000006
RCIE                              00000005
RCIF                              00000005
RCIP                              00000005
RCMT                              00000006
RCON                              00000FD0
RCREG                             00000FAE
RCSTA                             00000FAB
RD                                00000000
RD16                              00000007
RE3                               00000003
READ_WRITE                        00000002
RESEN                             00000006
RI                                00000004
RX                                00000007
RX9                               00000006
RX9D                              00000000
RXDTP                             00000005
R_NOT_W                           00000002
R_W                               00000002
S                                 00000003
SASEL0                            00000000
SASEL1                            00000001
SBSEL0                            00000004
SBSEL1                            00000005
SCK                               00000005
SCKP                              00000004
SCL                               00000005
SCS0                              00000000
SCS1                              00000001
SCSEL0                            00000002
SCSEL1                            00000003
SDA                               00000004
MPASM  5.43                         SETUP.ASM   3-26-2019  2:29:52         PAGE 16


SYMBOL TABLE
  LABEL                             VALUE 

SDI                               00000004
SDO                               00000007
SDSEL0                            00000006
SDSEL1                            00000007
SENDB                             00000003
SEVOPS0                           00000004
SEVOPS1                           00000005
SEVOPS2                           00000006
SEVOPS3                           00000007
SEVTCMPH                          00000F70
SEVTCMPL                          00000F71
SEVTDIR                           00000003
SMP                               00000007
SONG_START_INV                    0000000B
SPBRG                             00000FAF
SPBRGH                            00000FB0
SPEN                              00000007
SREN                              00000005
SS                                00000006
SSPADD                            00000FC8
SSPBUF                            00000FC9
SSPCON                            00000FC6
SSPEN                             00000005
SSPIE                             00000003
SSPIF                             00000003
SSPIP                             00000003
SSPM0                             00000000
SSPM1                             00000001
SSPM2                             00000002
SSPM3                             00000003
SSPOV                             00000006
SSPSTAT                           00000FC7
SSRC0                             00000000
SSRC1                             00000001
SSRC2                             00000002
SSRC3                             00000003
SSRC4                             00000004
START_STOP_TGL                    00000016
STATUS                            00000FD8
STKFUL                            00000007
STKOVF                            00000007
STKPTR                            00000FFC
STKPTR0                           00000000
STKPTR1                           00000001
STKPTR2                           00000002
STKPTR3                           00000003
STKPTR4                           00000004
STKUNF                            00000006
ST_TMP                            0000001A
SWDTEN                            00000000
SYNC                              00000004
T016BIT                           00000006
T0CKI                             00000003
MPASM  5.43                         SETUP.ASM   3-26-2019  2:29:52         PAGE 17


SYMBOL TABLE
  LABEL                             VALUE 

T0CON                             00000FD5
T0CS                              00000005
T0IE                              00000005
T0IF                              00000002
T0IP                              00000002
T0PS0                             00000000
T0PS1                             00000001
T0PS2                             00000002
T0PS3                             00000003
T0SE                              00000004
T13CKI                            00000000
T1CKPS0                           00000004
T1CKPS1                           00000005
T1CON                             00000FCD
T1INSYNC                          00000002
T1OSCEN                           00000003
T1OSI                             00000001
T1OSO                             00000000
T1RUN                             00000006
T1SYNC                            00000002
T2CKPS0                           00000000
T2CKPS1                           00000001
T2CON                             00000FCA
T2OUTPS0                          00000003
T2OUTPS1                          00000004
T2OUTPS2                          00000005
T2OUTPS3                          00000006
T5CKI                             00000003
T5CON                             00000FB7
T5MOD                             00000005
T5PS0                             00000003
T5PS1                             00000004
T5SEN                             00000007
T5SYNC                            00000002
TABLAT                            00000FF5
TBIE                              00000004
TBIF                              00000004
TBIP                              00000004
TBLPTR                            00000FF6
TBLPTRH                           00000FF7
TBLPTRL                           00000FF6
TBLPTRU                           00000FF8
TMP_CV_BYTE_H                     0000001D
TMP_CV_BYTE_L                     0000001C
TMR0                              00000FD6
TMR0H                             00000FD7
TMR0IE                            00000005
TMR0IF                            00000002
TMR0IP                            00000002
TMR0L                             00000FD6
TMR0ON                            00000007
TMR1                              00000FCE
TMR1CS                            00000001
MPASM  5.43                         SETUP.ASM   3-26-2019  2:29:52         PAGE 18


SYMBOL TABLE
  LABEL                             VALUE 

TMR1H                             00000FCF
TMR1IE                            00000000
TMR1IF                            00000000
TMR1IP                            00000000
TMR1L                             00000FCE
TMR1ON                            00000000
TMR2                              00000FCC
TMR2IE                            00000001
TMR2IF                            00000001
TMR2IP                            00000001
TMR2ON                            00000002
TMR5                              00000F87
TMR5CS                            00000001
TMR5H                             00000F88
TMR5IE                            00000000
TMR5IF                            00000000
TMR5IP                            00000000
TMR5L                             00000F87
TMR5ON                            00000000
TO                                00000003
TOS                               00000FFD
TOSH                              00000FFE
TOSL                              00000FFD
TOSU                              00000FFF
TOUTPS0                           00000003
TOUTPS1                           00000004
TOUTPS2                           00000005
TOUTPS3                           00000006
TRISA                             00000F92
TRISA0                            00000000
TRISA1                            00000001
TRISA2                            00000002
TRISA3                            00000003
TRISA4                            00000004
TRISA6                            00000006
TRISA7                            00000007
TRISB                             00000F93
TRISB0                            00000000
TRISB1                            00000001
TRISB2                            00000002
TRISB3                            00000003
TRISB4                            00000004
TRISB5                            00000005
TRISB6                            00000006
TRISB7                            00000007
TRISC                             00000F94
TRISC0                            00000000
TRISC1                            00000001
TRISC2                            00000002
TRISC3                            00000003
TRISC4                            00000004
TRISC5                            00000005
TRISC6                            00000006
MPASM  5.43                         SETUP.ASM   3-26-2019  2:29:52         PAGE 19


SYMBOL TABLE
  LABEL                             VALUE 

TRISC7                            00000007
TRMT                              00000001
TUN0                              00000000
TUN1                              00000001
TUN2                              00000002
TUN3                              00000003
TUN4                              00000004
TUN5                              00000005
TX                                00000006
TX9                               00000006
TX9D                              00000000
TXCKP                             00000004
TXEN                              00000005
TXIE                              00000004
TXIF                              00000004
TXIP                              00000004
TXREG                             00000FAD
TXSTA                             00000FAC
UA                                00000001
UDIS                              00000001
UP                                00000005
UPDOWN                            00000005
UP_DOWN                           00000005
UP_NOT_DOWN                       00000005
VCFG0                             00000006
VCFG1                             00000007
VELM                              00000007
VELRH                             00000F69
VELRL                             00000F68
VREFM                             00000002
VREFP                             00000003
W                                 00000000
WAIT_FOR_BUTTONUP                 00000017
WCOL                              00000007
WDTCON                            00000FD1
WDTW                              00000007
WR                                00000001
WREG                              00000FE8
WREN                              00000002
WRERR                             00000003
WUE                               00000001
W_TMP                             00000019
Z                                 00000002
_BOREN_OFF_2L                     000000FD
_BOREN_ON_2L                      000000FF
_BORV_20_2L                       000000FF
_BORV_27_2L                       000000FB
_BORV_42_2L                       000000F7
_BORV_45_2L                       000000F3
_CONFIG1H                         00300001
_CONFIG2H                         00300003
_CONFIG2L                         00300002
_CONFIG3H                         00300005
MPASM  5.43                         SETUP.ASM   3-26-2019  2:29:52         PAGE 20


SYMBOL TABLE
  LABEL                             VALUE 

_CONFIG3L                         00300004
_CONFIG4L                         00300006
_CONFIG5H                         00300009
_CONFIG5L                         00300008
_CONFIG6H                         0030000B
_CONFIG6L                         0030000A
_CONFIG7H                         0030000D
_CONFIG7L                         0030000C
_CP0_OFF_5L                       000000FF
_CP0_ON_5L                        000000FE
_CP1_OFF_5L                       000000FF
_CP1_ON_5L                        000000FD
_CP2_OFF_5L                       000000FF
_CP2_ON_5L                        000000FB
_CP3_OFF_5L                       000000FF
_CP3_ON_5L                        000000F7
_CPB_OFF_5H                       000000FF
_CPB_ON_5H                        000000BF
_CPD_OFF_5H                       000000FF
_CPD_ON_5H                        0000007F
_DEBUG_OFF_4L                     000000FF
_DEBUG_ON_4L                      0000007F
_DEVID1                           003FFFFE
_DEVID2                           003FFFFF
_EBTR0_OFF_7L                     000000FF
_EBTR0_ON_7L                      000000FE
_EBTR1_OFF_7L                     000000FF
_EBTR1_ON_7L                      000000FD
_EBTR2_OFF_7L                     000000FF
_EBTR2_ON_7L                      000000FB
_EBTR3_OFF_7L                     000000FF
_EBTR3_ON_7L                      000000F7
_EBTRB_OFF_7H                     000000FF
_EBTRB_ON_7H                      000000BF
_FCMEN_OFF_1H                     000000BF
_FCMEN_ON_1H                      000000FF
_HPOL_HIGH_3L                     000000FF
_HPOL_LOW_3L                      000000EF
_IDLOC0                           00200000
_IDLOC1                           00200001
_IDLOC2                           00200002
_IDLOC3                           00200003
_IDLOC4                           00200004
_IDLOC5                           00200005
_IDLOC6                           00200006
_IDLOC7                           00200007
_IESO_OFF_1H                      0000007F
_IESO_ON_1H                       000000FF
_LPOL_HIGH_3L                     000000FF
_LPOL_LOW_3L                      000000F7
_LVP_OFF_4L                       000000FB
_LVP_ON_4L                        000000FF
_MCLRE_OFF_3H                     0000007F
MPASM  5.43                         SETUP.ASM   3-26-2019  2:29:52         PAGE 21


SYMBOL TABLE
  LABEL                             VALUE 

_MCLRE_ON_3H                      000000FF
_OSC_ECIO_1H                      000000F5
_OSC_EC_1H                        000000F4
_OSC_HSPLL_1H                     000000F6
_OSC_HS_1H                        000000F2
_OSC_IRCIO_1H                     000000F8
_OSC_IRC_1H                       000000F9
_OSC_LP_1H                        000000F0
_OSC_RC1_1H                       000000FA
_OSC_RC2_1H                       000000F3
_OSC_RCIO_1H                      000000F7
_OSC_RC_1H                        000000FC
_OSC_XT_1H                        000000F1
_PWMPIN_OFF_3L                    000000FF
_PWMPIN_ON_3L                     000000FB
_PWRTEN_OFF_2L                    000000FF
_PWRTEN_ON_2L                     000000FE
_SETUP                            00000000
_STVREN_OFF_4L                    000000FE
_STVREN_ON_4L                     000000FF
_T1OSCMX_OFF_3L                   000000DF
_T1OSCMX_ON_3L                    000000FF
_WDPS_1024_2H                     000000F5
_WDPS_128_2H                      000000EF
_WDPS_16384_2H                    000000FD
_WDPS_16_2H                       000000E9
_WDPS_1_2H                        000000E1
_WDPS_2048_2H                     000000F7
_WDPS_256_2H                      000000F1
_WDPS_2_2H                        000000E3
_WDPS_32768_2H                    000000FF
_WDPS_32_2H                       000000EB
_WDPS_4096_2H                     000000F9
_WDPS_4_2H                        000000E5
_WDPS_512_2H                      000000F3
_WDPS_64_2H                       000000ED
_WDPS_8192_2H                     000000FB
_WDPS_8_2H                        000000E7
_WDTEN_OFF_2H                     000000FE
_WDTEN_ON_2H                      000000FF
_WINEN_OFF_2H                     000000FF
_WINEN_ON_2H                      000000DF
_WRT0_OFF_6L                      000000FF
_WRT0_ON_6L                       000000FE
_WRT1_OFF_6L                      000000FF
_WRT1_ON_6L                       000000FD
_WRT2_OFF_6L                      000000FF
_WRT2_ON_6L                       000000FB
_WRT3_OFF_6L                      000000FF
_WRT3_ON_6L                       000000F7
_WRTB_OFF_6H                      000000FF
_WRTB_ON_6H                       000000BF
_WRTC_OFF_6H                      000000FF
MPASM  5.43                         SETUP.ASM   3-26-2019  2:29:52         PAGE 22


SYMBOL TABLE
  LABEL                             VALUE 

_WRTC_ON_6H                       000000DF
_WRTD_OFF_6H                      000000FF
_WRTD_ON_6H                       0000007F
__18F2431                         00000001

Errors   :     0
Warnings :     0 reported,     0 suppressed
Messages :     0 reported,     0 suppressed

